target datalayout = "e-m:e-p270:32:32-p271:32:32-p272:64:64-i64:64-i128:128-f80:128-n8:16:32:64-S128"
target triple = "x86_64-unknown-linux-gnu"

@.str.19 = private unnamed_addr constant [14 x i8] c"$tex.mapmodeu\00", align 1
@.str.20 = private unnamed_addr constant [14 x i8] c"$tex.mapmodev\00", align 1

; Function Attrs: mustprogress uwtable
define linkonce_odr noundef i32 @_ZN10aiMaterial11AddPropertyIiEE8aiReturnPKT_jPKcjj(ptr noundef nonnull align 8 dereferenceable(16) %this, ptr noundef %pInput, i32 noundef %pNumValues, ptr noundef %pKey, i32 noundef %type, i32 noundef %index) #2 comdat align 2 {
entry:
  %this.addr = alloca ptr, align 8
  %pInput.addr = alloca ptr, align 8
  %pNumValues.addr = alloca i32, align 4
  %pKey.addr = alloca ptr, align 8
  %type.addr = alloca i32, align 4
  %index.addr = alloca i32, align 4
  store ptr %this, ptr %this.addr, align 8
  store ptr %pInput, ptr %pInput.addr, align 8
  store i32 %pNumValues, ptr %pNumValues.addr, align 4
  store ptr %pKey, ptr %pKey.addr, align 8
  store i32 %type, ptr %type.addr, align 4
  store i32 %index, ptr %index.addr, align 4
  %this1 = load ptr, ptr %this.addr, align 8
  %0 = load ptr, ptr %pInput.addr, align 8
  %1 = load i32, ptr %pNumValues.addr, align 4
  %conv = zext i32 %1 to i64
  %mul = mul i64 %conv, 4
  %conv2 = trunc i64 %mul to i32
  %2 = load ptr, ptr %pKey.addr, align 8
  %3 = load i32, ptr %type.addr, align 4
  %4 = load i32, ptr %index.addr, align 4
  %call = call noundef i32 @_ZN10aiMaterial17AddBinaryPropertyEPKvjPKcjj18aiPropertyTypeInfo(ptr noundef nonnull align 8 dereferenceable(16) %this1, ptr noundef %0, i32 noundef %conv2, ptr noundef %2, i32 noundef %3, i32 noundef %4, i32 noundef 4)
  ret i32 %call
}

; Function Attrs: mustprogress uwtable
define hidden void @_ZN6Assimp15ObjFileImporter29addTextureMappingModePropertyEP10aiMaterial13aiTextureTypeii(ptr noundef nonnull align 8 dereferenceable(136) %this, ptr noundef %mat, i32 noundef %type, i32 noundef %clampMode, i32 noundef %index) #2 align 2 {
entry:
  %this.addr = alloca ptr, align 8
  %mat.addr = alloca ptr, align 8
  %type.addr = alloca i32, align 4
  %clampMode.addr = alloca i32, align 4
  %index.addr = alloca i32, align 4
  store ptr %this, ptr %this.addr, align 8
  store ptr %mat, ptr %mat.addr, align 8
  store i32 %type, ptr %type.addr, align 4
  store i32 %clampMode, ptr %clampMode.addr, align 4
  store i32 %index, ptr %index.addr, align 4
  %0 = load ptr, ptr %mat.addr, align 8
  %cmp = icmp eq ptr null, %0
  br i1 %cmp, label %if.then, label %if.end

if.then:                                          ; preds = %entry
  br label %return

if.end:                                           ; preds = %entry
  %1 = load ptr, ptr %mat.addr, align 8
  %2 = load i32, ptr %type.addr, align 4
  %3 = load i32, ptr %index.addr, align 4
  %call = call noundef i32 @_ZN10aiMaterial11AddPropertyIiEE8aiReturnPKT_jPKcjj(ptr noundef nonnull align 8 dereferenceable(16) %1, ptr noundef %clampMode.addr, i32 noundef 1, ptr noundef @.str.19, i32 noundef %2, i32 noundef %3)
  %4 = load ptr, ptr %mat.addr, align 8
  %5 = load i32, ptr %type.addr, align 4
  %6 = load i32, ptr %index.addr, align 4
  %call2 = call noundef i32 @_ZN10aiMaterial11AddPropertyIiEE8aiReturnPKT_jPKcjj(ptr noundef nonnull align 8 dereferenceable(16) %4, ptr noundef %clampMode.addr, i32 noundef 1, ptr noundef @.str.20, i32 noundef %5, i32 noundef %6)
  br label %return

return:                                           ; preds = %if.end, %if.then
  ret void
}