; Function Attrs: mustprogress uwtable
define hidden void @_ZN6Assimp15ObjFileImporter29addTextureMappingModePropertyEP10aiMaterial13aiTextureTypeii(ptr nocapture noundef nonnull readnone align 8 dereferenceable(136) %this, ptr noundef %mat, i32 noundef %type, i32 noundef %clampMode, i32 noundef %index) local_unnamed_addr #2 align 2 {
entry:
  %clampMode.addr = alloca i32, align 4
  store i32 %clampMode, ptr %clampMode.addr, align 4
  %cmp = icmp eq ptr %mat, null
  br i1 %cmp, label %return, label %if.end

if.end:                                           ; preds = %entry
  %call.i = call noundef i32 @_ZN10aiMaterial17AddBinaryPropertyEPKvjPKcjj18aiPropertyTypeInfo(ptr noundef nonnull align 8 dereferenceable(16) %mat, ptr noundef nonnull %clampMode.addr, i32 noundef 4, ptr noundef nonnull @.str.19, i32 noundef %type, i32 noundef %index, i32 noundef 4)
  %call.i5 = call noundef i32 @_ZN10aiMaterial17AddBinaryPropertyEPKvjPKcjj18aiPropertyTypeInfo(ptr noundef nonnull align 8 dereferenceable(16) %mat, ptr noundef nonnull %clampMode.addr, i32 noundef 4, ptr noundef nonnull @.str.20, i32 noundef %type, i32 noundef %index, i32 noundef 4)
  br label %return

return:                                           ; preds = %entry, %if.end
  ret void
}